
disco.elf:     file format elf32-avr

Sections:
Idx Name          Size      VMA       LMA       File off  Algn
  0 .text         00000256  00000000  00000000  00000094  2**1
                  CONTENTS, ALLOC, LOAD, READONLY, CODE
  1 .data         00000004  00800060  00000256  000002ea  2**0
                  CONTENTS, ALLOC, LOAD, DATA
  2 .bss          00000003  00800064  00800064  000002ee  2**0
                  ALLOC
  3 .comment      00000030  00000000  00000000  000002ee  2**0
                  CONTENTS, READONLY

Disassembly of section .text:

00000000 <__vectors>:
   0:	10 c0       	rjmp	.+32     	; 0x22 <__ctors_end>
   2:	2a c0       	rjmp	.+84     	; 0x58 <__bad_interrupt>
   4:	29 c0       	rjmp	.+82     	; 0x58 <__bad_interrupt>
   6:	28 c0       	rjmp	.+80     	; 0x58 <__bad_interrupt>
   8:	27 c0       	rjmp	.+78     	; 0x58 <__bad_interrupt>
   a:	26 c0       	rjmp	.+76     	; 0x58 <__bad_interrupt>
   c:	25 c0       	rjmp	.+74     	; 0x58 <__bad_interrupt>
   e:	24 c0       	rjmp	.+72     	; 0x58 <__bad_interrupt>
  10:	23 c0       	rjmp	.+70     	; 0x58 <__bad_interrupt>
  12:	22 c0       	rjmp	.+68     	; 0x58 <__bad_interrupt>
  14:	21 c0       	rjmp	.+66     	; 0x58 <__bad_interrupt>
  16:	20 c0       	rjmp	.+64     	; 0x58 <__bad_interrupt>
  18:	1f c0       	rjmp	.+62     	; 0x58 <__bad_interrupt>
  1a:	1e c0       	rjmp	.+60     	; 0x58 <__bad_interrupt>
  1c:	1d c0       	rjmp	.+58     	; 0x58 <__bad_interrupt>
  1e:	1c c0       	rjmp	.+56     	; 0x58 <__bad_interrupt>
  20:	1b c0       	rjmp	.+54     	; 0x58 <__bad_interrupt>

00000022 <__ctors_end>:
  22:	11 24       	eor	r1, r1
  24:	1f be       	out	0x3f, r1	; 63
  26:	cf e5       	ldi	r28, 0x5F	; 95
  28:	d2 e0       	ldi	r29, 0x02	; 2
  2a:	de bf       	out	0x3e, r29	; 62
  2c:	cd bf       	out	0x3d, r28	; 61

0000002e <__do_copy_data>:
  2e:	10 e0       	ldi	r17, 0x00	; 0
  30:	a0 e6       	ldi	r26, 0x60	; 96
  32:	b0 e0       	ldi	r27, 0x00	; 0
  34:	e6 e5       	ldi	r30, 0x56	; 86
  36:	f2 e0       	ldi	r31, 0x02	; 2
  38:	02 c0       	rjmp	.+4      	; 0x3e <__SP_H__>
  3a:	05 90       	lpm	r0, Z+
  3c:	0d 92       	st	X+, r0
  3e:	a4 36       	cpi	r26, 0x64	; 100
  40:	b1 07       	cpc	r27, r17
  42:	d9 f7       	brne	.-10     	; 0x3a <__do_copy_data+0xc>

00000044 <__do_clear_bss>:
  44:	20 e0       	ldi	r18, 0x00	; 0
  46:	a4 e6       	ldi	r26, 0x64	; 100
  48:	b0 e0       	ldi	r27, 0x00	; 0
  4a:	01 c0       	rjmp	.+2      	; 0x4e <.do_clear_bss_start>

0000004c <.do_clear_bss_loop>:
  4c:	1d 92       	st	X+, r1

0000004e <.do_clear_bss_start>:
  4e:	a7 36       	cpi	r26, 0x67	; 103
  50:	b2 07       	cpc	r27, r18
  52:	e1 f7       	brne	.-8      	; 0x4c <.do_clear_bss_loop>
  54:	02 d0       	rcall	.+4      	; 0x5a <main>
  56:	fd c0       	rjmp	.+506    	; 0x252 <_exit>

00000058 <__bad_interrupt>:
  58:	d3 cf       	rjmp	.-90     	; 0x0 <__vectors>

0000005a <main>:
  5a:	18 d0       	rcall	.+48     	; 0x8c <_Z8pwm_initv>
  5c:	41 d0       	rcall	.+130    	; 0xe0 <_Z8adc_initv>
  5e:	cf d0       	rcall	.+414    	; 0x1fe <_Z11msgeq7_initv>
  60:	80 d0       	rcall	.+256    	; 0x162 <_Z8led_initv>
  62:	79 d0       	rcall	.+242    	; 0x156 <_Z11button_initv>
  64:	7b d0       	rcall	.+246    	; 0x15c <_Z7sw_initv>
  66:	40 e0       	ldi	r20, 0x00	; 0
  68:	60 e0       	ldi	r22, 0x00	; 0
  6a:	80 e0       	ldi	r24, 0x00	; 0
  6c:	dc d0       	rcall	.+440    	; 0x226 <_Z12strip_setRGBhhh>
  6e:	85 e0       	ldi	r24, 0x05	; 5
  70:	3e d0       	rcall	.+124    	; 0xee <_Z14adc_setChannelh>
  72:	69 d0       	rcall	.+210    	; 0x146 <_Z8adc_readv>
  74:	ac 01       	movw	r20, r24
  76:	56 95       	lsr	r21
  78:	47 95       	ror	r20
  7a:	56 95       	lsr	r21
  7c:	47 95       	ror	r20
  7e:	60 e0       	ldi	r22, 0x00	; 0
  80:	80 e0       	ldi	r24, 0x00	; 0
  82:	d1 d0       	rcall	.+418    	; 0x226 <_Z12strip_setRGBhhh>
  84:	61 e0       	ldi	r22, 0x01	; 1
  86:	80 e0       	ldi	r24, 0x00	; 0
  88:	71 d0       	rcall	.+226    	; 0x16c <_Z9led_blinkhh>
  8a:	f3 cf       	rjmp	.-26     	; 0x72 <main+0x18>

0000008c <_Z8pwm_initv>:
  8c:	ba 9a       	sbi	0x17, 2	; 23
  8e:	8a b3       	in	r24, 0x1a	; 26
  90:	80 6c       	ori	r24, 0xC0	; 192
  92:	8a bb       	out	0x1a, r24	; 26
  94:	80 b7       	in	r24, 0x30	; 48
  96:	80 62       	ori	r24, 0x20	; 32
  98:	80 bf       	out	0x30, r24	; 48
  9a:	80 b7       	in	r24, 0x30	; 48
  9c:	80 68       	ori	r24, 0x80	; 128
  9e:	80 bf       	out	0x30, r24	; 48
  a0:	80 b7       	in	r24, 0x30	; 48
  a2:	83 60       	ori	r24, 0x03	; 3
  a4:	80 bf       	out	0x30, r24	; 48
  a6:	83 b7       	in	r24, 0x33	; 51
  a8:	82 60       	ori	r24, 0x02	; 2
  aa:	83 bf       	out	0x33, r24	; 51
  ac:	8f b5       	in	r24, 0x2f	; 47
  ae:	80 68       	ori	r24, 0x80	; 128
  b0:	8f bd       	out	0x2f, r24	; 47
  b2:	8f b5       	in	r24, 0x2f	; 47
  b4:	8f 7b       	andi	r24, 0xBF	; 191
  b6:	8f bd       	out	0x2f, r24	; 47
  b8:	8f b5       	in	r24, 0x2f	; 47
  ba:	81 60       	ori	r24, 0x01	; 1
  bc:	8f bd       	out	0x2f, r24	; 47
  be:	8e b5       	in	r24, 0x2e	; 46
  c0:	88 60       	ori	r24, 0x08	; 8
  c2:	8e bd       	out	0x2e, r24	; 46
  c4:	8e b5       	in	r24, 0x2e	; 46
  c6:	81 60       	ori	r24, 0x01	; 1
  c8:	8e bd       	out	0x2e, r24	; 46
  ca:	08 95       	ret

000000cc <_Z7pwm_set5Colorh>:
  cc:	81 30       	cpi	r24, 0x01	; 1
  ce:	29 f0       	breq	.+10     	; 0xda <_Z7pwm_set5Colorh+0xe>
  d0:	18 f0       	brcs	.+6      	; 0xd8 <_Z7pwm_set5Colorh+0xc>
  d2:	82 30       	cpi	r24, 0x02	; 2
  d4:	19 f0       	breq	.+6      	; 0xdc <_Z7pwm_set5Colorh+0x10>
  d6:	08 95       	ret
  d8:	66 bf       	out	0x36, r22	; 54
  da:	6c bf       	out	0x3c, r22	; 60
  dc:	6a bd       	out	0x2a, r22	; 42
  de:	08 95       	ret

000000e0 <_Z8adc_initv>:
  e0:	3e 98       	cbi	0x07, 6	; 7
  e2:	3f 98       	cbi	0x07, 7	; 7
  e4:	86 b1       	in	r24, 0x06	; 6
  e6:	86 60       	ori	r24, 0x06	; 6
  e8:	86 b9       	out	0x06, r24	; 6
  ea:	37 9a       	sbi	0x06, 7	; 6
  ec:	08 95       	ret

000000ee <_Z14adc_setChannelh>:
  ee:	82 30       	cpi	r24, 0x02	; 2
  f0:	a1 f0       	breq	.+40     	; 0x11a <_Z14adc_setChannelh+0x2c>
  f2:	28 f4       	brcc	.+10     	; 0xfe <_Z14adc_setChannelh+0x10>
  f4:	88 23       	and	r24, r24
  f6:	49 f0       	breq	.+18     	; 0x10a <_Z14adc_setChannelh+0x1c>
  f8:	81 30       	cpi	r24, 0x01	; 1
  fa:	51 f0       	breq	.+20     	; 0x110 <_Z14adc_setChannelh+0x22>
  fc:	08 95       	ret
  fe:	84 30       	cpi	r24, 0x04	; 4
 100:	b9 f0       	breq	.+46     	; 0x130 <_Z14adc_setChannelh+0x42>
 102:	80 f0       	brcs	.+32     	; 0x124 <_Z14adc_setChannelh+0x36>
 104:	85 30       	cpi	r24, 0x05	; 5
 106:	c1 f0       	breq	.+48     	; 0x138 <_Z14adc_setChannelh+0x4a>
 108:	08 95       	ret
 10a:	87 b1       	in	r24, 0x07	; 7
 10c:	80 7c       	andi	r24, 0xC0	; 192
 10e:	19 c0       	rjmp	.+50     	; 0x142 <_Z14adc_setChannelh+0x54>
 110:	87 b1       	in	r24, 0x07	; 7
 112:	81 7c       	andi	r24, 0xC1	; 193
 114:	87 b9       	out	0x07, r24	; 7
 116:	38 9a       	sbi	0x07, 0	; 7
 118:	08 95       	ret
 11a:	87 b1       	in	r24, 0x07	; 7
 11c:	82 7c       	andi	r24, 0xC2	; 194
 11e:	87 b9       	out	0x07, r24	; 7
 120:	39 9a       	sbi	0x07, 1	; 7
 122:	08 95       	ret
 124:	87 b1       	in	r24, 0x07	; 7
 126:	83 7c       	andi	r24, 0xC3	; 195
 128:	87 b9       	out	0x07, r24	; 7
 12a:	87 b1       	in	r24, 0x07	; 7
 12c:	83 60       	ori	r24, 0x03	; 3
 12e:	09 c0       	rjmp	.+18     	; 0x142 <_Z14adc_setChannelh+0x54>
 130:	87 b1       	in	r24, 0x07	; 7
 132:	84 7c       	andi	r24, 0xC4	; 196
 134:	87 b9       	out	0x07, r24	; 7
 136:	3a 9a       	sbi	0x07, 2	; 7
 138:	87 b1       	in	r24, 0x07	; 7
 13a:	85 7c       	andi	r24, 0xC5	; 197
 13c:	87 b9       	out	0x07, r24	; 7
 13e:	87 b1       	in	r24, 0x07	; 7
 140:	85 60       	ori	r24, 0x05	; 5
 142:	87 b9       	out	0x07, r24	; 7
 144:	08 95       	ret

00000146 <_Z8adc_readv>:
 146:	36 9a       	sbi	0x06, 6	; 6
 148:	36 99       	sbic	0x06, 6	; 6
 14a:	fe cf       	rjmp	.-4      	; 0x148 <_Z8adc_readv+0x2>
 14c:	84 b1       	in	r24, 0x04	; 4
 14e:	25 b1       	in	r18, 0x05	; 5
 150:	90 e0       	ldi	r25, 0x00	; 0
 152:	92 2b       	or	r25, r18
 154:	08 95       	ret

00000156 <_Z11button_initv>:
 156:	d3 98       	cbi	0x1a, 3	; 26
 158:	db 9a       	sbi	0x1b, 3	; 27
 15a:	08 95       	ret

0000015c <_Z7sw_initv>:
 15c:	d4 98       	cbi	0x1a, 4	; 26
 15e:	dc 9a       	sbi	0x1b, 4	; 27
 160:	08 95       	ret

00000162 <_Z8led_initv>:
 162:	87 b3       	in	r24, 0x17	; 23
 164:	83 60       	ori	r24, 0x03	; 3
 166:	87 bb       	out	0x17, r24	; 23
 168:	c1 98       	cbi	0x18, 1	; 24
 16a:	08 95       	ret

0000016c <_Z9led_blinkhh>:
 16c:	62 30       	cpi	r22, 0x02	; 2
 16e:	60 f0       	brcs	.+24     	; 0x188 <_Z9led_blinkhh+0x1c>
 170:	21 e0       	ldi	r18, 0x01	; 1
 172:	30 e0       	ldi	r19, 0x00	; 0
 174:	01 c0       	rjmp	.+2      	; 0x178 <_Z9led_blinkhh+0xc>
 176:	22 0f       	add	r18, r18
 178:	8a 95       	dec	r24
 17a:	ea f7       	brpl	.-6      	; 0x176 <_Z9led_blinkhh+0xa>
 17c:	42 2f       	mov	r20, r18
 17e:	20 95       	com	r18
 180:	80 e0       	ldi	r24, 0x00	; 0
 182:	90 e0       	ldi	r25, 0x00	; 0
 184:	70 e0       	ldi	r23, 0x00	; 0
 186:	1d c0       	rjmp	.+58     	; 0x1c2 <_Z9led_blinkhh+0x56>
 188:	98 b3       	in	r25, 0x18	; 24
 18a:	21 e0       	ldi	r18, 0x01	; 1
 18c:	30 e0       	ldi	r19, 0x00	; 0
 18e:	01 c0       	rjmp	.+2      	; 0x192 <_Z9led_blinkhh+0x26>
 190:	22 0f       	add	r18, r18
 192:	8a 95       	dec	r24
 194:	ea f7       	brpl	.-6      	; 0x190 <_Z9led_blinkhh+0x24>
 196:	92 2b       	or	r25, r18
 198:	98 bb       	out	0x18, r25	; 24
 19a:	4f ef       	ldi	r20, 0xFF	; 255
 19c:	59 ef       	ldi	r21, 0xF9	; 249
 19e:	80 e0       	ldi	r24, 0x00	; 0
 1a0:	41 50       	subi	r20, 0x01	; 1
 1a2:	50 40       	sbci	r21, 0x00	; 0
 1a4:	80 40       	sbci	r24, 0x00	; 0
 1a6:	e1 f7       	brne	.-8      	; 0x1a0 <_Z9led_blinkhh+0x34>
 1a8:	00 c0       	rjmp	.+0      	; 0x1aa <_Z9led_blinkhh+0x3e>
 1aa:	00 00       	nop
 1ac:	88 b3       	in	r24, 0x18	; 24
 1ae:	20 95       	com	r18
 1b0:	28 23       	and	r18, r24
 1b2:	28 bb       	out	0x18, r18	; 24
 1b4:	8f e1       	ldi	r24, 0x1F	; 31
 1b6:	9e e4       	ldi	r25, 0x4E	; 78
 1b8:	01 97       	sbiw	r24, 0x01	; 1
 1ba:	f1 f7       	brne	.-4      	; 0x1b8 <_Z9led_blinkhh+0x4c>
 1bc:	00 c0       	rjmp	.+0      	; 0x1be <_Z9led_blinkhh+0x52>
 1be:	00 00       	nop
 1c0:	08 95       	ret
 1c2:	86 17       	cp	r24, r22
 1c4:	97 07       	cpc	r25, r23
 1c6:	d4 f4       	brge	.+52     	; 0x1fc <_Z9led_blinkhh+0x90>
 1c8:	38 b3       	in	r19, 0x18	; 24
 1ca:	34 2b       	or	r19, r20
 1cc:	38 bb       	out	0x18, r19	; 24
 1ce:	ef ef       	ldi	r30, 0xFF	; 255
 1d0:	39 ef       	ldi	r19, 0xF9	; 249
 1d2:	50 e0       	ldi	r21, 0x00	; 0
 1d4:	e1 50       	subi	r30, 0x01	; 1
 1d6:	30 40       	sbci	r19, 0x00	; 0
 1d8:	50 40       	sbci	r21, 0x00	; 0
 1da:	e1 f7       	brne	.-8      	; 0x1d4 <_Z9led_blinkhh+0x68>
 1dc:	00 c0       	rjmp	.+0      	; 0x1de <_Z9led_blinkhh+0x72>
 1de:	00 00       	nop
 1e0:	38 b3       	in	r19, 0x18	; 24
 1e2:	32 23       	and	r19, r18
 1e4:	38 bb       	out	0x18, r19	; 24
 1e6:	ef e7       	ldi	r30, 0x7F	; 127
 1e8:	3a e1       	ldi	r19, 0x1A	; 26
 1ea:	56 e0       	ldi	r21, 0x06	; 6
 1ec:	e1 50       	subi	r30, 0x01	; 1
 1ee:	30 40       	sbci	r19, 0x00	; 0
 1f0:	50 40       	sbci	r21, 0x00	; 0
 1f2:	e1 f7       	brne	.-8      	; 0x1ec <_Z9led_blinkhh+0x80>
 1f4:	00 c0       	rjmp	.+0      	; 0x1f6 <_Z9led_blinkhh+0x8a>
 1f6:	00 00       	nop
 1f8:	01 96       	adiw	r24, 0x01	; 1
 1fa:	e3 cf       	rjmp	.-58     	; 0x1c2 <_Z9led_blinkhh+0x56>
 1fc:	08 95       	ret

000001fe <_Z11msgeq7_initv>:
 1fe:	8a b3       	in	r24, 0x1a	; 26
 200:	86 60       	ori	r24, 0x06	; 6
 202:	8a bb       	out	0x1a, r24	; 26
 204:	d0 98       	cbi	0x1a, 0	; 26
 206:	da 9a       	sbi	0x1b, 2	; 27
 208:	da 98       	cbi	0x1b, 2	; 27
 20a:	08 95       	ret

0000020c <_Z16strip_setChannel5Colorh>:
 20c:	cf 93       	push	r28
 20e:	df 93       	push	r29
 210:	d8 2f       	mov	r29, r24
 212:	c6 2f       	mov	r28, r22
 214:	5b df       	rcall	.-330    	; 0xcc <_Z7pwm_set5Colorh>
 216:	ed 2f       	mov	r30, r29
 218:	f0 e0       	ldi	r31, 0x00	; 0
 21a:	ec 59       	subi	r30, 0x9C	; 156
 21c:	ff 4f       	sbci	r31, 0xFF	; 255
 21e:	c0 83       	st	Z, r28
 220:	df 91       	pop	r29
 222:	cf 91       	pop	r28
 224:	08 95       	ret

00000226 <_Z12strip_setRGBhhh>:
 226:	1f 93       	push	r17
 228:	cf 93       	push	r28
 22a:	df 93       	push	r29
 22c:	1f 92       	push	r1
 22e:	cd b7       	in	r28, 0x3d	; 61
 230:	de b7       	in	r29, 0x3e	; 62
 232:	16 2f       	mov	r17, r22
 234:	68 2f       	mov	r22, r24
 236:	80 e0       	ldi	r24, 0x00	; 0
 238:	49 83       	std	Y+1, r20	; 0x01
 23a:	e8 df       	rcall	.-48     	; 0x20c <_Z16strip_setChannel5Colorh>
 23c:	61 2f       	mov	r22, r17
 23e:	81 e0       	ldi	r24, 0x01	; 1
 240:	e5 df       	rcall	.-54     	; 0x20c <_Z16strip_setChannel5Colorh>
 242:	49 81       	ldd	r20, Y+1	; 0x01
 244:	64 2f       	mov	r22, r20
 246:	82 e0       	ldi	r24, 0x02	; 2
 248:	0f 90       	pop	r0
 24a:	df 91       	pop	r29
 24c:	cf 91       	pop	r28
 24e:	1f 91       	pop	r17
 250:	dd cf       	rjmp	.-70     	; 0x20c <_Z16strip_setChannel5Colorh>

00000252 <_exit>:
 252:	f8 94       	cli

00000254 <__stop_program>:
 254:	ff cf       	rjmp	.-2      	; 0x254 <__stop_program>
